; Function Attrs: mustprogress nofree norecurse nosync nounwind willreturn memory(read, argmem: write, inaccessiblemem: none) uwtable
define dso_local void @_ZN4Luau16CstStatTypeAliasC2ENS_8PositionES1_NS_8AstArrayIS1_EES1_S1_(ptr noundef nonnull writeonly align 8 captures(none) dereferenceable(56) initializes((0, 20), (24, 56)) %0, i64 %1, i64 %2, ptr %3, i64 %4, i64 %5, i64 %6) unnamed_addr #4 align 2 {
  %8 = load i32, ptr @_ZN4Luau7CstRttiINS_16CstStatTypeAliasEE5valueE, align 4, !tbaa !4
  store i32 %8, ptr %0, align 8, !tbaa !8
  %9 = getelementptr inbounds nuw i8, ptr %0, i64 4
  store i64 %1, ptr %9, align 4
  %10 = getelementptr inbounds nuw i8, ptr %0, i64 12
  store i64 %2, ptr %10, align 4
  %11 = getelementptr inbounds nuw i8, ptr %0, i64 24
  store ptr %3, ptr %11, align 8, !tbaa !22
  %.sroa.2.0..sroa_idx = getelementptr inbounds nuw i8, ptr %0, i64 32
  store i64 %4, ptr %.sroa.2.0..sroa_idx, align 8, !tbaa !14
  %12 = getelementptr inbounds nuw i8, ptr %0, i64 40
  store i64 %5, ptr %12, align 8
  %13 = getelementptr inbounds nuw i8, ptr %0, i64 48
  store i64 %6, ptr %13, align 8
  ret void
}